target datalayout = "e-m:e-p270:32:32-p271:32:32-p272:64:64-i64:64-i128:128-f80:128-n8:16:32:64-S128"
target triple = "x86_64-pc-linux-gnu"

%class.PSPromotionManager = type { %class.PSYoungPromotionLAB, %class.PSOldPromotionLAB, i8, i8, %class.OverflowTaskQueue, i32, i32, i32, ptr, %class.PromotionFailedInfo, %"class.StringDedup::Requests" }
%class.PSYoungPromotionLAB = type { %class.PSPromotionLAB.base, [4 x i8] }
%class.PSPromotionLAB.base = type <{ ptr, ptr, ptr, ptr, i32 }>
%class.PSOldPromotionLAB = type { %class.PSPromotionLAB.base, ptr }
%class.OverflowTaskQueue = type { %class.GenericTaskQueue, %class.Stack }
%class.GenericTaskQueue = type { %class.TaskQueueSuper, ptr, [120 x i8], i32, i32, [120 x i8] }
%class.TaskQueueSuper = type { [128 x i8], i32, [124 x i8], %"class.TaskQueueSuper<131072, MEMFLAGS::mtGC>::Age", [120 x i8] }
%"class.TaskQueueSuper<131072, MEMFLAGS::mtGC>::Age" = type { %union.anon }
%union.anon = type { i64 }
%class.Stack = type { ptr, %class.StackBase, ptr, ptr }
%class.StackBase = type { i64, i64, i64, i64, i64, i64 }
%class.PromotionFailedInfo = type { %class.CopyFailedInfo.base, i64 }
%class.CopyFailedInfo.base = type <{ ptr, i64, i64, i64, i32 }>
%"class.StringDedup::Requests" = type <{ ptr, ptr, i64, i8, [7 x i8] }>
%class.MemRegion = type { ptr, i64 }
%class.CopyFailedInfo = type <{ ptr, i64, i64, i64, i32, [4 x i8] }>
%class.PSOldGen = type { ptr, ptr, %class.ObjectStartArray, ptr, ptr, ptr, i64, i64 }
%class.ObjectStartArray = type { [8 x i8], %class.PSVirtualSpace, ptr }
%class.PSVirtualSpace = type <{ ptr, i64, ptr, ptr, ptr, ptr, i8, [7 x i8] }>
%class.MutableSpace = type { ptr, %class.MemRegion, i64, ptr, ptr, ptr }

@_ZN18PSPromotionManager8_old_genE = hidden global ptr null, align 8
@_ZN18PSPromotionManager12_young_spaceE = hidden global ptr null, align 8

; Function Attrs: mustprogress nounwind uwtable
define linkonce_odr hidden void @_ZN14CopyFailedInfo5resetEv(ptr noundef nonnull align 8 dereferenceable(36) %0) unnamed_addr #1 comdat align 2 {
  %2 = alloca ptr, align 8
  store ptr %0, ptr %2, align 8
  %3 = load ptr, ptr %2, align 8
  %4 = getelementptr inbounds %class.CopyFailedInfo, ptr %3, i32 0, i32 1
  store i64 0, ptr %4, align 8
  %5 = getelementptr inbounds %class.CopyFailedInfo, ptr %3, i32 0, i32 2
  store i64 0, ptr %5, align 8
  %6 = getelementptr inbounds %class.CopyFailedInfo, ptr %3, i32 0, i32 3
  store i64 0, ptr %6, align 8
  %7 = getelementptr inbounds %class.CopyFailedInfo, ptr %3, i32 0, i32 4
  store i32 0, ptr %7, align 8
  ret void
}

; Function Attrs: mustprogress nounwind uwtable
define linkonce_odr hidden void @_ZN19PromotionFailedInfo5resetEv(ptr noundef nonnull align 8 dereferenceable(48) %0) unnamed_addr #1 comdat align 2 {
  %2 = alloca ptr, align 8
  store ptr %0, ptr %2, align 8
  %3 = load ptr, ptr %2, align 8
  call void @_ZN14CopyFailedInfo5resetEv(ptr noundef nonnull align 8 dereferenceable(36) %3)
  %4 = getelementptr inbounds %class.PromotionFailedInfo, ptr %3, i32 0, i32 1
  store i64 0, ptr %4, align 8
  ret void
}

; Function Attrs: mustprogress nounwind uwtable
define linkonce_odr hidden noundef ptr @_ZNK8PSOldGen12object_spaceEv(ptr noundef nonnull align 8 dereferenceable(128) %0) #1 comdat align 2 {
  %2 = alloca ptr, align 8
  store ptr %0, ptr %2, align 8
  %3 = load ptr, ptr %2, align 8
  %4 = getelementptr inbounds %class.PSOldGen, ptr %3, i32 0, i32 3
  %5 = load ptr, ptr %4, align 8
  ret ptr %5
}

; Function Attrs: mustprogress nounwind uwtable
define linkonce_odr hidden noundef ptr @_ZN18PSPromotionManager7old_genEv() #1 comdat align 2 {
  %1 = load ptr, ptr @_ZN18PSPromotionManager8_old_genE, align 8
  ret ptr %1
}

; Function Attrs: mustprogress nounwind uwtable
define linkonce_odr hidden void @_ZN9MemRegionC2EPP12HeapWordImplm(ptr noundef nonnull align 8 dereferenceable(16) %0, ptr noundef %1, i64 noundef %2) unnamed_addr #1 comdat align 2 {
  %4 = alloca ptr, align 8
  %5 = alloca ptr, align 8
  %6 = alloca i64, align 8
  store ptr %0, ptr %4, align 8
  store ptr %1, ptr %5, align 8
  store i64 %2, ptr %6, align 8
  %7 = load ptr, ptr %4, align 8
  %8 = getelementptr inbounds %class.MemRegion, ptr %7, i32 0, i32 0
  %9 = load ptr, ptr %5, align 8
  store ptr %9, ptr %8, align 8
  %10 = getelementptr inbounds %class.MemRegion, ptr %7, i32 0, i32 1
  %11 = load i64, ptr %6, align 8
  store i64 %11, ptr %10, align 8
  ret void
}

; Function Attrs: mustprogress nounwind uwtable
define linkonce_odr hidden noundef ptr @_ZNK12MutableSpace3topEv(ptr noundef nonnull align 8 dereferenceable(56) %0) #1 comdat align 2 {
  %2 = alloca ptr, align 8
  store ptr %0, ptr %2, align 8
  %3 = load ptr, ptr %2, align 8
  %4 = getelementptr inbounds %class.MutableSpace, ptr %3, i32 0, i32 4
  %5 = load volatile ptr, ptr %4, align 8
  ret ptr %5
}

; Function Attrs: mustprogress nounwind uwtable
define linkonce_odr hidden noundef ptr @_ZN18PSPromotionManager11young_spaceEv() #1 comdat align 2 {
  %1 = load ptr, ptr @_ZN18PSPromotionManager12_young_spaceE, align 8
  ret ptr %1
}

; Function Attrs: mustprogress nounwind uwtable
define hidden void @_ZN18PSPromotionManager5resetEv(ptr noundef nonnull align 8 dereferenceable(912) %0) #1 align 2 {
  %2 = alloca ptr, align 8
  %3 = alloca ptr, align 8
  %4 = alloca %class.MemRegion, align 8
  %5 = alloca %class.MemRegion, align 8
  store ptr %0, ptr %2, align 8
  %6 = load ptr, ptr %2, align 8
  %7 = call noundef ptr @_ZN18PSPromotionManager11young_spaceEv()
  %8 = call noundef ptr @_ZNK12MutableSpace3topEv(ptr noundef nonnull align 8 dereferenceable(56) %7)
  store ptr %8, ptr %3, align 8
  %9 = getelementptr inbounds %class.PSPromotionManager, ptr %6, i32 0, i32 0
  %10 = load ptr, ptr %3, align 8
  call void @_ZN9MemRegionC2EPP12HeapWordImplm(ptr noundef nonnull align 8 dereferenceable(16) %4, ptr noundef %10, i64 noundef 0)
  %11 = getelementptr inbounds { ptr, i64 }, ptr %4, i32 0, i32 0
  %12 = load ptr, ptr %11, align 8
  %13 = getelementptr inbounds { ptr, i64 }, ptr %4, i32 0, i32 1
  %14 = load i64, ptr %13, align 8
  call void @_ZN14PSPromotionLAB10initializeE9MemRegion(ptr noundef nonnull align 8 dereferenceable(36) %9, ptr %12, i64 %14)
  %15 = getelementptr inbounds %class.PSPromotionManager, ptr %6, i32 0, i32 2
  store i8 0, ptr %15, align 8
  %16 = call noundef ptr @_ZN18PSPromotionManager7old_genEv()
  %17 = call noundef ptr @_ZNK8PSOldGen12object_spaceEv(ptr noundef nonnull align 8 dereferenceable(128) %16)
  %18 = call noundef ptr @_ZNK12MutableSpace3topEv(ptr noundef nonnull align 8 dereferenceable(56) %17)
  store ptr %18, ptr %3, align 8
  %19 = getelementptr inbounds %class.PSPromotionManager, ptr %6, i32 0, i32 1
  %20 = load ptr, ptr %3, align 8
  call void @_ZN9MemRegionC2EPP12HeapWordImplm(ptr noundef nonnull align 8 dereferenceable(16) %5, ptr noundef %20, i64 noundef 0)
  %21 = getelementptr inbounds { ptr, i64 }, ptr %5, i32 0, i32 0
  %22 = load ptr, ptr %21, align 8
  %23 = getelementptr inbounds { ptr, i64 }, ptr %5, i32 0, i32 1
  %24 = load i64, ptr %23, align 8
  call void @_ZN14PSPromotionLAB10initializeE9MemRegion(ptr noundef nonnull align 8 dereferenceable(36) %19, ptr %22, i64 %24)
  %25 = getelementptr inbounds %class.PSPromotionManager, ptr %6, i32 0, i32 3
  store i8 0, ptr %25, align 1
  %26 = getelementptr inbounds %class.PSPromotionManager, ptr %6, i32 0, i32 9
  call void @_ZN19PromotionFailedInfo5resetEv(ptr noundef nonnull align 8 dereferenceable(48) %26)
  ret void
}