; Function Attrs: mustprogress nounwind uwtable
define hidden void @_ZN18PSPromotionManager5resetEv(ptr noundef nonnull align 8 dereferenceable(912) %0) local_unnamed_addr #0 align 2 {
  %2 = load ptr, ptr @_ZN18PSPromotionManager12_young_spaceE, align 8
  %3 = getelementptr inbounds i8, ptr %2, i64 40
  %4 = load volatile ptr, ptr %3, align 8
  tail call void @_ZN14PSPromotionLAB10initializeE9MemRegion(ptr noundef nonnull align 8 dereferenceable(36) %0, ptr %4, i64 0) #12
  %5 = getelementptr inbounds i8, ptr %0, i64 88
  store i8 0, ptr %5, align 8
  %6 = load ptr, ptr @_ZN18PSPromotionManager8_old_genE, align 8
  %7 = getelementptr inbounds i8, ptr %6, i64 88
  %8 = load ptr, ptr %7, align 8
  %9 = getelementptr inbounds i8, ptr %8, i64 40
  %10 = load volatile ptr, ptr %9, align 8
  %11 = getelementptr inbounds i8, ptr %0, i64 40
  tail call void @_ZN14PSPromotionLAB10initializeE9MemRegion(ptr noundef nonnull align 8 dereferenceable(36) %11, ptr %10, i64 0) #12
  %12 = getelementptr inbounds i8, ptr %0, i64 89
  store i8 0, ptr %12, align 1
  %13 = getelementptr inbounds i8, ptr %0, i64 840
  tail call void @llvm.memset.p0.i64(ptr noundef nonnull align 8 dereferenceable(28) %13, i8 0, i64 28, i1 false)
  %14 = getelementptr inbounds i8, ptr %0, i64 872
  store i64 0, ptr %14, align 8
  ret void
}